target datalayout = "e-m:e-p270:32:32-p271:32:32-p272:64:64-i64:64-i128:128-f80:128-n8:16:32:64-S128"
target triple = "x86_64-pc-linux-gnu"

%union.pthread_mutex_t = type { %struct.__pthread_mutex_s }
%struct.__pthread_mutex_s = type { i32, i32, i32, i32, i32, i16, i16, %struct.__pthread_internal_list }
%struct.__pthread_internal_list = type { ptr, ptr }
%struct.acct_gather_profile_timer_t = type { i32, i64, %union.pthread_cond_t, %union.pthread_mutex_t }
%union.pthread_cond_t = type { %struct.__pthread_cond_s }
%struct.__pthread_cond_s = type { %union.__atomic_wide_counter, %union.__atomic_wide_counter, [2 x i32], [2 x i32], i32, i32, [2 x i32] }
%union.__atomic_wide_counter = type { i64 }
%struct.slurm_acct_gather_interconnect_ops = type { ptr, ptr, ptr, ptr, ptr }

@g_context_lock = internal global %union.pthread_mutex_t zeroinitializer, align 8
@.str.1 = private unnamed_addr constant [29 x i8] c"%s: pthread_mutex_lock(): %m\00", align 1
@g_context_num = internal global i32 -1, align 4
@init_run = internal global i8 0, align 1
@ops = internal global ptr null, align 8
@.str.3 = private unnamed_addr constant [27 x i8] c"acct_gather_interconnect.c\00", align 1
@g_context = internal global ptr null, align 8
@.str.7 = private unnamed_addr constant [31 x i8] c"%s: pthread_mutex_unlock(): %m\00", align 1
@profile_timer = internal global ptr getelementptr (i8, ptr @acct_gather_profile_timer, i64 312), align 8
@.str.25 = private unnamed_addr constant [14 x i8] c"acctg_intrcnt\00", align 1
@.str.26 = private unnamed_addr constant [32 x i8] c"%s: cannot set my name to %s %m\00", align 1
@__func__._watch_node = private unnamed_addr constant [12 x i8] c"_watch_node\00", align 1
@.str.27 = private unnamed_addr constant [9 x i8] c"acctg_ib\00", align 1
@.str.28 = private unnamed_addr constant [34 x i8] c"%s:%d %s: pthread_cond_wait(): %m\00", align 1

; Function Attrs: nounwind uwtable
define internal ptr @_watch_node(ptr noundef %0) #0 {
  %2 = alloca ptr, align 8
  %3 = alloca i32, align 4
  %4 = alloca i32, align 4
  %5 = alloca i32, align 4
  %6 = alloca i32, align 4
  %7 = alloca i32, align 4
  %8 = alloca i32, align 4
  store ptr %0, ptr %2, align 8
  call void @llvm.lifetime.start.p0(i64 4, ptr %3) #6
  %9 = call i32 (i32, ...) @prctl(i32 noundef 15, ptr noundef @.str.25, ptr noundef null, ptr noundef null, ptr noundef null) #6
  %10 = icmp slt i32 %9, 0
  br i1 %10, label %11, label %13

11:                                               ; preds = %1
  %12 = call i32 (ptr, ...) @error(ptr noundef @.str.26, ptr noundef @__func__._watch_node, ptr noundef @.str.27)
  br label %13

13:                                               ; preds = %11, %1
  br label %14

14:                                               ; preds = %104, %13
  %15 = load i8, ptr @init_run, align 1, !range !11, !noundef !12
  %16 = trunc i8 %15 to i1
  br i1 %16, label %17, label %19

17:                                               ; preds = %14
  %18 = call zeroext i1 @acct_gather_profile_test()
  br label %19

19:                                               ; preds = %17, %14
  %20 = phi i1 [ false, %14 ], [ %18, %17 ]
  br i1 %20, label %21, label %105

21:                                               ; preds = %19
  br label %22

22:                                               ; preds = %21
  call void @llvm.lifetime.start.p0(i64 4, ptr %4) #6
  %23 = call i32 @pthread_mutex_lock(ptr noundef @g_context_lock) #6
  store i32 %23, ptr %4, align 4
  %24 = load i32, ptr %4, align 4
  %25 = icmp ne i32 %24, 0
  br i1 %25, label %26, label %29

26:                                               ; preds = %22
  %27 = load i32, ptr %4, align 4
  %28 = call ptr @__errno_location() #7
  store i32 %27, ptr %28, align 4
  call void (ptr, ...) @fatal_abort(ptr noundef @.str.1, ptr noundef @__func__._watch_node) #8
  unreachable

29:                                               ; preds = %22
  call void @llvm.lifetime.end.p0(i64 4, ptr %4) #6
  br label %30

30:                                               ; preds = %29
  br label %31

31:                                               ; preds = %30
  store i32 0, ptr %3, align 4
  br label %32

32:                                               ; preds = %52, %31
  %33 = load i32, ptr %3, align 4
  %34 = load i32, ptr @g_context_num, align 4
  %35 = icmp slt i32 %33, %34
  br i1 %35, label %36, label %55

36:                                               ; preds = %32
  %37 = load ptr, ptr @g_context, align 8
  %38 = load i32, ptr %3, align 4
  %39 = sext i32 %38 to i64
  %40 = getelementptr inbounds ptr, ptr %37, i64 %39
  %41 = load ptr, ptr %40, align 8
  %42 = icmp ne ptr %41, null
  br i1 %42, label %44, label %43

43:                                               ; preds = %36
  br label %52

44:                                               ; preds = %36
  %45 = load ptr, ptr @ops, align 8
  %46 = load i32, ptr %3, align 4
  %47 = sext i32 %46 to i64
  %48 = getelementptr inbounds %struct.slurm_acct_gather_interconnect_ops, ptr %45, i64 %47
  %49 = getelementptr inbounds nuw %struct.slurm_acct_gather_interconnect_ops, ptr %48, i32 0, i32 0
  %50 = load ptr, ptr %49, align 8
  %51 = call i32 %50()
  br label %52

52:                                               ; preds = %44, %43
  %53 = load i32, ptr %3, align 4
  %54 = add nsw i32 %53, 1
  store i32 %54, ptr %3, align 4
  br label %32, !llvm.loop !14

55:                                               ; preds = %32
  br label %56

56:                                               ; preds = %55
  call void @llvm.lifetime.start.p0(i64 4, ptr %5) #6
  %57 = call i32 @pthread_mutex_unlock(ptr noundef @g_context_lock) #6
  store i32 %57, ptr %5, align 4
  %58 = load i32, ptr %5, align 4
  %59 = icmp ne i32 %58, 0
  br i1 %59, label %60, label %63

60:                                               ; preds = %56
  %61 = load i32, ptr %5, align 4
  %62 = call ptr @__errno_location() #7
  store i32 %61, ptr %62, align 4
  call void (ptr, ...) @fatal_abort(ptr noundef @.str.7, ptr noundef @__func__._watch_node) #8
  unreachable

63:                                               ; preds = %56
  call void @llvm.lifetime.end.p0(i64 4, ptr %5) #6
  br label %64

64:                                               ; preds = %63
  br label %65

65:                                               ; preds = %64
  br label %66

66:                                               ; preds = %65
  call void @llvm.lifetime.start.p0(i64 4, ptr %6) #6
  %67 = load ptr, ptr @profile_timer, align 8
  %68 = getelementptr inbounds nuw %struct.acct_gather_profile_timer_t, ptr %67, i32 0, i32 3
  %69 = call i32 @pthread_mutex_lock(ptr noundef %68) #6
  store i32 %69, ptr %6, align 4
  %70 = load i32, ptr %6, align 4
  %71 = icmp ne i32 %70, 0
  br i1 %71, label %72, label %75

72:                                               ; preds = %66
  %73 = load i32, ptr %6, align 4
  %74 = call ptr @__errno_location() #7
  store i32 %73, ptr %74, align 4
  call void (ptr, ...) @fatal_abort(ptr noundef @.str.1, ptr noundef @__func__._watch_node) #8
  unreachable

75:                                               ; preds = %66
  call void @llvm.lifetime.end.p0(i64 4, ptr %6) #6
  br label %76

76:                                               ; preds = %75
  br label %77

77:                                               ; preds = %76
  br label %78

78:                                               ; preds = %77
  call void @llvm.lifetime.start.p0(i64 4, ptr %7) #6
  %79 = load ptr, ptr @profile_timer, align 8
  %80 = getelementptr inbounds nuw %struct.acct_gather_profile_timer_t, ptr %79, i32 0, i32 2
  %81 = load ptr, ptr @profile_timer, align 8
  %82 = getelementptr inbounds nuw %struct.acct_gather_profile_timer_t, ptr %81, i32 0, i32 3
  %83 = call i32 @pthread_cond_wait(ptr noundef %80, ptr noundef %82)
  store i32 %83, ptr %7, align 4
  %84 = load i32, ptr %7, align 4
  %85 = icmp ne i32 %84, 0
  br i1 %85, label %86, label %90

86:                                               ; preds = %78
  %87 = load i32, ptr %7, align 4
  %88 = call ptr @__errno_location() #7
  store i32 %87, ptr %88, align 4
  %89 = call i32 (ptr, ...) @error(ptr noundef @.str.28, ptr noundef @.str.3, i32 noundef 113, ptr noundef @__func__._watch_node)
  br label %90

90:                                               ; preds = %86, %78
  call void @llvm.lifetime.end.p0(i64 4, ptr %7) #6
  br label %91

91:                                               ; preds = %90
  br label %92

92:                                               ; preds = %91
  br label %93

93:                                               ; preds = %92
  call void @llvm.lifetime.start.p0(i64 4, ptr %8) #6
  %94 = load ptr, ptr @profile_timer, align 8
  %95 = getelementptr inbounds nuw %struct.acct_gather_profile_timer_t, ptr %94, i32 0, i32 3
  %96 = call i32 @pthread_mutex_unlock(ptr noundef %95) #6
  store i32 %96, ptr %8, align 4
  %97 = load i32, ptr %8, align 4
  %98 = icmp ne i32 %97, 0
  br i1 %98, label %99, label %102

99:                                               ; preds = %93
  %100 = load i32, ptr %8, align 4
  %101 = call ptr @__errno_location() #7
  store i32 %100, ptr %101, align 4
  call void (ptr, ...) @fatal_abort(ptr noundef @.str.7, ptr noundef @__func__._watch_node) #8
  unreachable

102:                                              ; preds = %93
  call void @llvm.lifetime.end.p0(i64 4, ptr %8) #6
  br label %103

103:                                              ; preds = %102
  br label %104

104:                                              ; preds = %103
  br label %14, !llvm.loop !15

105:                                              ; preds = %19
  call void @llvm.lifetime.end.p0(i64 4, ptr %3) #6
  ret ptr null
}