; Function Attrs: nounwind uwtable
define internal noundef ptr @_watch_node(ptr readnone captures(none) %0) #0 {
  %2 = tail call i32 (i32, ...) @prctl(i32 noundef 15, ptr noundef nonnull @.str.25, ptr noundef null, ptr noundef null, ptr noundef null) #7
  %3 = icmp slt i32 %2, 0
  br i1 %3, label %4, label %.preheader65

4:                                                ; preds = %1
  %5 = tail call i32 (ptr, ...) @error(ptr noundef nonnull @.str.26, ptr noundef nonnull @__func__._watch_node, ptr noundef nonnull @.str.27) #7
  br label %.preheader65

.preheader65:                                     ; preds = %4, %1
  br label %6

6:                                                ; preds = %.preheader65, %41
  %.b19 = load i1, ptr @init_run, align 1
  br i1 %.b19, label %7, label %.critedge

7:                                                ; preds = %6
  %8 = tail call zeroext i1 @acct_gather_profile_test() #7
  br i1 %8, label %9, label %.critedge

9:                                                ; preds = %7
  %10 = tail call i32 @pthread_mutex_lock(ptr noundef nonnull @g_context_lock) #7
  %.not = icmp eq i32 %10, 0
  br i1 %.not, label %.preheader, label %13

.preheader:                                       ; preds = %9
  %11 = load i32, ptr @g_context_num, align 4
  %12 = icmp sgt i32 %11, 0
  br i1 %12, label %.lr.ph.preheader, label %._crit_edge

.lr.ph.preheader:                                 ; preds = %.preheader
  %.pre45 = load ptr, ptr @g_context, align 8
  br label %.lr.ph

13:                                               ; preds = %9
  %14 = tail call ptr @__errno_location() #8
  store i32 %10, ptr %14, align 4
  tail call void (ptr, ...) @fatal_abort(ptr noundef nonnull @.str.1, ptr noundef nonnull @__func__._watch_node) #9
  unreachable

.lr.ph:                                           ; preds = %.lr.ph.preheader, %24
  %15 = phi i32 [ %11, %.lr.ph.preheader ], [ %25, %24 ]
  %16 = phi ptr [ %.pre45, %.lr.ph.preheader ], [ %26, %24 ]
  %indvars.iv = phi i64 [ 0, %.lr.ph.preheader ], [ %indvars.iv.next, %24 ]
  %17 = getelementptr inbounds nuw ptr, ptr %16, i64 %indvars.iv
  %18 = load ptr, ptr %17, align 8
  %.not24 = icmp eq ptr %18, null
  br i1 %.not24, label %24, label %19

19:                                               ; preds = %.lr.ph
  %20 = load ptr, ptr @ops, align 8
  %21 = getelementptr inbounds nuw %struct.slurm_acct_gather_interconnect_ops, ptr %20, i64 %indvars.iv
  %22 = load ptr, ptr %21, align 8
  %23 = tail call i32 %22() #7
  %.pre = load ptr, ptr @g_context, align 8
  %.pre46 = load i32, ptr @g_context_num, align 4
  br label %24

24:                                               ; preds = %.lr.ph, %19
  %25 = phi i32 [ %15, %.lr.ph ], [ %.pre46, %19 ]
  %26 = phi ptr [ %16, %.lr.ph ], [ %.pre, %19 ]
  %indvars.iv.next = add nuw nsw i64 %indvars.iv, 1
  %27 = sext i32 %25 to i64
  %28 = icmp slt i64 %indvars.iv.next, %27
  br i1 %28, label %.lr.ph, label %._crit_edge, !llvm.loop !12

._crit_edge:                                      ; preds = %24, %.preheader
  %29 = tail call i32 @pthread_mutex_unlock(ptr noundef nonnull @g_context_lock) #7
  %.not20 = icmp eq i32 %29, 0
  br i1 %.not20, label %32, label %30

30:                                               ; preds = %._crit_edge
  %31 = tail call ptr @__errno_location() #8
  store i32 %29, ptr %31, align 4
  tail call void (ptr, ...) @fatal_abort(ptr noundef nonnull @.str.7, ptr noundef nonnull @__func__._watch_node) #9
  unreachable

32:                                               ; preds = %._crit_edge
  %33 = tail call i32 @pthread_mutex_lock(ptr noundef nonnull getelementptr inbounds nuw (i8, ptr @acct_gather_profile_timer, i64 376)) #7
  %.not21 = icmp eq i32 %33, 0
  br i1 %.not21, label %36, label %34

34:                                               ; preds = %32
  %35 = tail call ptr @__errno_location() #8
  store i32 %33, ptr %35, align 4
  tail call void (ptr, ...) @fatal_abort(ptr noundef nonnull @.str.1, ptr noundef nonnull @__func__._watch_node) #9
  unreachable

36:                                               ; preds = %32
  %37 = tail call i32 @pthread_cond_wait(ptr noundef nonnull getelementptr inbounds nuw (i8, ptr @acct_gather_profile_timer, i64 328), ptr noundef nonnull getelementptr inbounds nuw (i8, ptr @acct_gather_profile_timer, i64 376)) #7
  %.not22 = icmp eq i32 %37, 0
  br i1 %.not22, label %41, label %38

38:                                               ; preds = %36
  %39 = tail call ptr @__errno_location() #8
  store i32 %37, ptr %39, align 4
  %40 = tail call i32 (ptr, ...) @error(ptr noundef nonnull @.str.28, ptr noundef nonnull @.str.3, i32 noundef 113, ptr noundef nonnull @__func__._watch_node) #7
  br label %41

41:                                               ; preds = %38, %36
  %42 = tail call i32 @pthread_mutex_unlock(ptr noundef nonnull getelementptr inbounds nuw (i8, ptr @acct_gather_profile_timer, i64 376)) #7
  %.not23 = icmp eq i32 %42, 0
  br i1 %.not23, label %6, label %43, !llvm.loop !13

43:                                               ; preds = %41
  %44 = tail call ptr @__errno_location() #8
  store i32 %42, ptr %44, align 4
  tail call void (ptr, ...) @fatal_abort(ptr noundef nonnull @.str.7, ptr noundef nonnull @__func__._watch_node) #9
  unreachable

.critedge:                                        ; preds = %6, %7
  ret ptr null
}